; Function Attrs: mustprogress nounwind uwtable
define void @_ZN2cv25BOWImgDescriptorExtractorD2Ev(ptr noundef nonnull align 8 dereferenceable(136) %0) unnamed_addr #1 align 2 personality ptr @__gxx_personality_v0 {
  store ptr getelementptr inbounds inrange(-16, 16) (i8, ptr @_ZTVN2cv25BOWImgDescriptorExtractorE, i64 16), ptr %0, align 8
  %2 = getelementptr inbounds i8, ptr %0, i64 128
  %3 = load ptr, ptr %2, align 8
  %.not.i.i.i.i = icmp eq ptr %3, null
  br i1 %.not.i.i.i.i, label %_ZN2cv3PtrINS_17DescriptorMatcherEED2Ev.exit, label %4

4:                                                ; preds = %1
  %5 = getelementptr inbounds i8, ptr %3, i64 8
  %6 = load atomic i64, ptr %5 acquire, align 8
  %7 = icmp eq i64 %6, 4294967297
  %8 = trunc i64 %6 to i32
  br i1 %7, label %9, label %14

9:                                                ; preds = %4
  store i32 0, ptr %5, align 8
  %10 = getelementptr inbounds i8, ptr %3, i64 12
  store i32 0, ptr %10, align 4
  %11 = load ptr, ptr %3, align 8
  %12 = getelementptr inbounds i8, ptr %11, i64 16
  %13 = load ptr, ptr %12, align 8
  tail call void %13(ptr noundef nonnull align 8 dereferenceable(16) %3) #20
  br label %_ZNSt16_Sp_counted_baseILN9__gnu_cxx12_Lock_policyE2EE24_M_release_last_use_coldEv.exit.sink.split.i.i.i.i.i

14:                                               ; preds = %4
  %15 = load i8, ptr @__libc_single_threaded, align 1
  %.not.i.i.i.i.i = icmp eq i8 %15, 0
  br i1 %.not.i.i.i.i.i, label %18, label %16

16:                                               ; preds = %14
  %17 = add nsw i32 %8, -1
  store i32 %17, ptr %5, align 4
  br label %20

18:                                               ; preds = %14
  %19 = atomicrmw volatile add ptr %5, i32 -1 acq_rel, align 4
  br label %20

20:                                               ; preds = %18, %16
  %.0.i.i.i.i.i = phi i32 [ %8, %16 ], [ %19, %18 ]
  %21 = icmp eq i32 %.0.i.i.i.i.i, 1
  br i1 %21, label %22, label %_ZN2cv3PtrINS_17DescriptorMatcherEED2Ev.exit

22:                                               ; preds = %20
  %23 = load ptr, ptr %3, align 8
  %24 = getelementptr inbounds i8, ptr %23, i64 16
  %25 = load ptr, ptr %24, align 8
  tail call void %25(ptr noundef nonnull align 8 dereferenceable(16) %3) #20
  %26 = getelementptr inbounds i8, ptr %3, i64 12
  %27 = load i8, ptr @__libc_single_threaded, align 1
  %.not.i.i.i.i.i.i.i = icmp eq i8 %27, 0
  br i1 %.not.i.i.i.i.i.i.i, label %31, label %28

28:                                               ; preds = %22
  %29 = load i32, ptr %26, align 4
  %30 = add nsw i32 %29, -1
  store i32 %30, ptr %26, align 4
  br label %33

31:                                               ; preds = %22
  %32 = atomicrmw volatile add ptr %26, i32 -1 acq_rel, align 4
  br label %33

33:                                               ; preds = %31, %28
  %.0.i.i.i.i.i.i.i = phi i32 [ %29, %28 ], [ %32, %31 ]
  %34 = icmp eq i32 %.0.i.i.i.i.i.i.i, 1
  br i1 %34, label %_ZNSt16_Sp_counted_baseILN9__gnu_cxx12_Lock_policyE2EE24_M_release_last_use_coldEv.exit.sink.split.i.i.i.i.i, label %_ZN2cv3PtrINS_17DescriptorMatcherEED2Ev.exit

_ZNSt16_Sp_counted_baseILN9__gnu_cxx12_Lock_policyE2EE24_M_release_last_use_coldEv.exit.sink.split.i.i.i.i.i: ; preds = %33, %9
  %35 = load ptr, ptr %3, align 8
  %36 = getelementptr inbounds i8, ptr %35, i64 24
  %37 = load ptr, ptr %36, align 8
  tail call void %37(ptr noundef nonnull align 8 dereferenceable(16) %3) #20
  br label %_ZN2cv3PtrINS_17DescriptorMatcherEED2Ev.exit

_ZN2cv3PtrINS_17DescriptorMatcherEED2Ev.exit:     ; preds = %1, %20, %33, %_ZNSt16_Sp_counted_baseILN9__gnu_cxx12_Lock_policyE2EE24_M_release_last_use_coldEv.exit.sink.split.i.i.i.i.i
  %38 = getelementptr inbounds i8, ptr %0, i64 112
  %39 = load ptr, ptr %38, align 8
  %.not.i.i.i.i1 = icmp eq ptr %39, null
  br i1 %.not.i.i.i.i1, label %_ZN2cv3PtrINS_9Feature2DEED2Ev.exit, label %40

40:                                               ; preds = %_ZN2cv3PtrINS_17DescriptorMatcherEED2Ev.exit
  %41 = getelementptr inbounds i8, ptr %39, i64 8
  %42 = load atomic i64, ptr %41 acquire, align 8
  %43 = icmp eq i64 %42, 4294967297
  %44 = trunc i64 %42 to i32
  br i1 %43, label %45, label %50

45:                                               ; preds = %40
  store i32 0, ptr %41, align 8
  %46 = getelementptr inbounds i8, ptr %39, i64 12
  store i32 0, ptr %46, align 4
  %47 = load ptr, ptr %39, align 8
  %48 = getelementptr inbounds i8, ptr %47, i64 16
  %49 = load ptr, ptr %48, align 8
  tail call void %49(ptr noundef nonnull align 8 dereferenceable(16) %39) #20
  br label %_ZNSt16_Sp_counted_baseILN9__gnu_cxx12_Lock_policyE2EE24_M_release_last_use_coldEv.exit.sink.split.i.i.i.i.i6

50:                                               ; preds = %40
  %51 = load i8, ptr @__libc_single_threaded, align 1
  %.not.i.i.i.i.i2 = icmp eq i8 %51, 0
  br i1 %.not.i.i.i.i.i2, label %54, label %52

52:                                               ; preds = %50
  %53 = add nsw i32 %44, -1
  store i32 %53, ptr %41, align 4
  br label %56

54:                                               ; preds = %50
  %55 = atomicrmw volatile add ptr %41, i32 -1 acq_rel, align 4
  br label %56

56:                                               ; preds = %54, %52
  %.0.i.i.i.i.i3 = phi i32 [ %44, %52 ], [ %55, %54 ]
  %57 = icmp eq i32 %.0.i.i.i.i.i3, 1
  br i1 %57, label %58, label %_ZN2cv3PtrINS_9Feature2DEED2Ev.exit

58:                                               ; preds = %56
  %59 = load ptr, ptr %39, align 8
  %60 = getelementptr inbounds i8, ptr %59, i64 16
  %61 = load ptr, ptr %60, align 8
  tail call void %61(ptr noundef nonnull align 8 dereferenceable(16) %39) #20
  %62 = getelementptr inbounds i8, ptr %39, i64 12
  %63 = load i8, ptr @__libc_single_threaded, align 1
  %.not.i.i.i.i.i.i.i4 = icmp eq i8 %63, 0
  br i1 %.not.i.i.i.i.i.i.i4, label %67, label %64

64:                                               ; preds = %58
  %65 = load i32, ptr %62, align 4
  %66 = add nsw i32 %65, -1
  store i32 %66, ptr %62, align 4
  br label %69

67:                                               ; preds = %58
  %68 = atomicrmw volatile add ptr %62, i32 -1 acq_rel, align 4
  br label %69

69:                                               ; preds = %67, %64
  %.0.i.i.i.i.i.i.i5 = phi i32 [ %65, %64 ], [ %68, %67 ]
  %70 = icmp eq i32 %.0.i.i.i.i.i.i.i5, 1
  br i1 %70, label %_ZNSt16_Sp_counted_baseILN9__gnu_cxx12_Lock_policyE2EE24_M_release_last_use_coldEv.exit.sink.split.i.i.i.i.i6, label %_ZN2cv3PtrINS_9Feature2DEED2Ev.exit

_ZNSt16_Sp_counted_baseILN9__gnu_cxx12_Lock_policyE2EE24_M_release_last_use_coldEv.exit.sink.split.i.i.i.i.i6: ; preds = %69, %45
  %71 = load ptr, ptr %39, align 8
  %72 = getelementptr inbounds i8, ptr %71, i64 24
  %73 = load ptr, ptr %72, align 8
  tail call void %73(ptr noundef nonnull align 8 dereferenceable(16) %39) #20
  br label %_ZN2cv3PtrINS_9Feature2DEED2Ev.exit

_ZN2cv3PtrINS_9Feature2DEED2Ev.exit:              ; preds = %_ZN2cv3PtrINS_17DescriptorMatcherEED2Ev.exit, %56, %69, %_ZNSt16_Sp_counted_baseILN9__gnu_cxx12_Lock_policyE2EE24_M_release_last_use_coldEv.exit.sink.split.i.i.i.i.i6
  %74 = getelementptr inbounds i8, ptr %0, i64 8
  tail call void @_ZN2cv3MatD1Ev(ptr noundef nonnull align 8 dereferenceable(96) %74) #20
  ret void
}